target datalayout = "e-m:e-p270:32:32-p271:32:32-p272:64:64-i64:64-i128:128-f80:128-n8:16:32:64-S128"
target triple = "x86_64-pc-linux-gnu"

%"class.std::ios_base::Init" = type { i8 }
%"class.Imf_3_4::InputPart" = type { ptr }

@_ZStL8__ioinit = internal global %"class.std::ios_base::Init" zeroinitializer, align 1
@__dso_handle = external hidden global i8
@llvm.global_ctors = appending global [1 x { i32, ptr, ptr }] [{ i32, ptr, ptr } { i32 65535, ptr @_GLOBAL__sub_I_ImfInputPart.cpp, ptr null }]

@_ZN7Imf_3_49InputPartC1ERNS_18MultiPartInputFileEi = unnamed_addr alias void (ptr, ptr, i32), ptr @_ZN7Imf_3_49InputPartC2ERNS_18MultiPartInputFileEi

; Function Attrs: uwtable
define internal void @__cxx_global_var_init() #0 section ".text.startup" {
  call void @_ZNSt8ios_base4InitC1Ev(ptr noundef nonnull align 1 dereferenceable(1) @_ZStL8__ioinit)
  %1 = call i32 @__cxa_atexit(ptr @_ZNSt8ios_base4InitD1Ev, ptr @_ZStL8__ioinit, ptr @__dso_handle) #3
  ret void
}

declare void @_ZNSt8ios_base4InitC1Ev(ptr noundef nonnull align 1 dereferenceable(1)) unnamed_addr #1

; Function Attrs: nounwind
declare void @_ZNSt8ios_base4InitD1Ev(ptr noundef nonnull align 1 dereferenceable(1)) unnamed_addr #2

; Function Attrs: nounwind
declare i32 @__cxa_atexit(ptr, ptr, ptr) #3

; Function Attrs: mustprogress uwtable
define void @_ZN7Imf_3_49InputPartC2ERNS_18MultiPartInputFileEi(ptr noundef nonnull align 8 dereferenceable(8) %0, ptr noundef nonnull align 8 dereferenceable(32) %1, i32 noundef %2) unnamed_addr #4 align 2 {
  %4 = alloca ptr, align 8
  %5 = alloca ptr, align 8
  %6 = alloca i32, align 4
  store ptr %0, ptr %4, align 8, !tbaa !3
  store ptr %1, ptr %5, align 8, !tbaa !8
  store i32 %2, ptr %6, align 4, !tbaa !10
  %7 = load ptr, ptr %4, align 8
  %8 = load ptr, ptr %5, align 8, !tbaa !8
  %9 = load i32, ptr %6, align 4, !tbaa !10
  %10 = call noundef ptr @_ZN7Imf_3_418MultiPartInputFile12getInputPartINS_9InputFileEEEPT_i(ptr noundef nonnull align 8 dereferenceable(32) %8, i32 noundef %9)
  %11 = getelementptr inbounds nuw %"class.Imf_3_4::InputPart", ptr %7, i32 0, i32 0
  store ptr %10, ptr %11, align 8, !tbaa !12
  ret void
}

declare hidden noundef ptr @_ZN7Imf_3_418MultiPartInputFile12getInputPartINS_9InputFileEEEPT_i(ptr noundef nonnull align 8 dereferenceable(32), i32 noundef) #1

; Function Attrs: mustprogress uwtable
define noundef ptr @_ZNK7Imf_3_49InputPart8fileNameEv(ptr noundef nonnull align 8 dereferenceable(8) %0) #4 align 2 {
  %2 = alloca ptr, align 8
  store ptr %0, ptr %2, align 8, !tbaa !3
  %3 = load ptr, ptr %2, align 8
  %4 = getelementptr inbounds nuw %"class.Imf_3_4::InputPart", ptr %3, i32 0, i32 0
  %5 = load ptr, ptr %4, align 8, !tbaa !12
  %6 = call noundef ptr @_ZNK7Imf_3_49InputFile8fileNameEv(ptr noundef nonnull align 8 dereferenceable(32) %5)
  ret ptr %6
}

declare noundef ptr @_ZNK7Imf_3_49InputFile8fileNameEv(ptr noundef nonnull align 8 dereferenceable(32)) #1

; Function Attrs: mustprogress uwtable
define noundef nonnull align 8 dereferenceable(49) ptr @_ZNK7Imf_3_49InputPart6headerEv(ptr noundef nonnull align 8 dereferenceable(8) %0) #4 align 2 {
  %2 = alloca ptr, align 8
  store ptr %0, ptr %2, align 8, !tbaa !3
  %3 = load ptr, ptr %2, align 8
  %4 = getelementptr inbounds nuw %"class.Imf_3_4::InputPart", ptr %3, i32 0, i32 0
  %5 = load ptr, ptr %4, align 8, !tbaa !12
  %6 = call noundef nonnull align 8 dereferenceable(49) ptr @_ZNK7Imf_3_49InputFile6headerEv(ptr noundef nonnull align 8 dereferenceable(32) %5)
  ret ptr %6
}

declare noundef nonnull align 8 dereferenceable(49) ptr @_ZNK7Imf_3_49InputFile6headerEv(ptr noundef nonnull align 8 dereferenceable(32)) #1

; Function Attrs: mustprogress uwtable
define noundef i32 @_ZNK7Imf_3_49InputPart7versionEv(ptr noundef nonnull align 8 dereferenceable(8) %0) #4 align 2 {
  %2 = alloca ptr, align 8
  store ptr %0, ptr %2, align 8, !tbaa !3
  %3 = load ptr, ptr %2, align 8
  %4 = getelementptr inbounds nuw %"class.Imf_3_4::InputPart", ptr %3, i32 0, i32 0
  %5 = load ptr, ptr %4, align 8, !tbaa !12
  %6 = call noundef i32 @_ZNK7Imf_3_49InputFile7versionEv(ptr noundef nonnull align 8 dereferenceable(32) %5)
  ret i32 %6
}

declare noundef i32 @_ZNK7Imf_3_49InputFile7versionEv(ptr noundef nonnull align 8 dereferenceable(32)) #1

; Function Attrs: mustprogress uwtable
define void @_ZN7Imf_3_49InputPart14setFrameBufferERKNS_11FrameBufferE(ptr noundef nonnull align 8 dereferenceable(8) %0, ptr noundef nonnull align 1 %1) #4 align 2 {
  %3 = alloca ptr, align 8
  %4 = alloca ptr, align 8
  store ptr %0, ptr %3, align 8, !tbaa !3
  store ptr %1, ptr %4, align 8, !tbaa !15
  %5 = load ptr, ptr %3, align 8
  %6 = getelementptr inbounds nuw %"class.Imf_3_4::InputPart", ptr %5, i32 0, i32 0
  %7 = load ptr, ptr %6, align 8, !tbaa !12
  %8 = load ptr, ptr %4, align 8, !tbaa !15
  call void @_ZN7Imf_3_49InputFile14setFrameBufferERKNS_11FrameBufferE(ptr noundef nonnull align 8 dereferenceable(32) %7, ptr noundef nonnull align 1 %8)
  ret void
}

declare void @_ZN7Imf_3_49InputFile14setFrameBufferERKNS_11FrameBufferE(ptr noundef nonnull align 8 dereferenceable(32), ptr noundef nonnull align 1) #1

; Function Attrs: mustprogress uwtable
define noundef nonnull align 1 ptr @_ZNK7Imf_3_49InputPart11frameBufferEv(ptr noundef nonnull align 8 dereferenceable(8) %0) #4 align 2 {
  %2 = alloca ptr, align 8
  store ptr %0, ptr %2, align 8, !tbaa !3
  %3 = load ptr, ptr %2, align 8
  %4 = getelementptr inbounds nuw %"class.Imf_3_4::InputPart", ptr %3, i32 0, i32 0
  %5 = load ptr, ptr %4, align 8, !tbaa !12
  %6 = call noundef nonnull align 1 ptr @_ZNK7Imf_3_49InputFile11frameBufferEv(ptr noundef nonnull align 8 dereferenceable(32) %5)
  ret ptr %6
}

declare noundef nonnull align 1 ptr @_ZNK7Imf_3_49InputFile11frameBufferEv(ptr noundef nonnull align 8 dereferenceable(32)) #1

; Function Attrs: mustprogress uwtable
define noundef zeroext i1 @_ZNK7Imf_3_49InputPart10isCompleteEv(ptr noundef nonnull align 8 dereferenceable(8) %0) #4 align 2 {
  %2 = alloca ptr, align 8
  store ptr %0, ptr %2, align 8, !tbaa !3
  %3 = load ptr, ptr %2, align 8
  %4 = getelementptr inbounds nuw %"class.Imf_3_4::InputPart", ptr %3, i32 0, i32 0
  %5 = load ptr, ptr %4, align 8, !tbaa !12
  %6 = call noundef zeroext i1 @_ZNK7Imf_3_49InputFile10isCompleteEv(ptr noundef nonnull align 8 dereferenceable(32) %5)
  ret i1 %6
}

declare noundef zeroext i1 @_ZNK7Imf_3_49InputFile10isCompleteEv(ptr noundef nonnull align 8 dereferenceable(32)) #1

; Function Attrs: mustprogress uwtable
define noundef zeroext i1 @_ZNK7Imf_3_49InputPart21isOptimizationEnabledEv(ptr noundef nonnull align 8 dereferenceable(8) %0) #4 align 2 {
  %2 = alloca ptr, align 8
  store ptr %0, ptr %2, align 8, !tbaa !3
  %3 = load ptr, ptr %2, align 8
  %4 = getelementptr inbounds nuw %"class.Imf_3_4::InputPart", ptr %3, i32 0, i32 0
  %5 = load ptr, ptr %4, align 8, !tbaa !12
  %6 = call noundef zeroext i1 @_ZNK7Imf_3_49InputFile21isOptimizationEnabledEv(ptr noundef nonnull align 8 dereferenceable(32) %5)
  ret i1 %6
}

declare noundef zeroext i1 @_ZNK7Imf_3_49InputFile21isOptimizationEnabledEv(ptr noundef nonnull align 8 dereferenceable(32)) #1

; Function Attrs: mustprogress uwtable
define void @_ZN7Imf_3_49InputPart10readPixelsEii(ptr noundef nonnull align 8 dereferenceable(8) %0, i32 noundef %1, i32 noundef %2) #4 align 2 {
  %4 = alloca ptr, align 8
  %5 = alloca i32, align 4
  %6 = alloca i32, align 4
  store ptr %0, ptr %4, align 8, !tbaa !3
  store i32 %1, ptr %5, align 4, !tbaa !10
  store i32 %2, ptr %6, align 4, !tbaa !10
  %7 = load ptr, ptr %4, align 8
  %8 = getelementptr inbounds nuw %"class.Imf_3_4::InputPart", ptr %7, i32 0, i32 0
  %9 = load ptr, ptr %8, align 8, !tbaa !12
  %10 = load i32, ptr %5, align 4, !tbaa !10
  %11 = load i32, ptr %6, align 4, !tbaa !10
  call void @_ZN7Imf_3_49InputFile10readPixelsEii(ptr noundef nonnull align 8 dereferenceable(32) %9, i32 noundef %10, i32 noundef %11)
  ret void
}

declare void @_ZN7Imf_3_49InputFile10readPixelsEii(ptr noundef nonnull align 8 dereferenceable(32), i32 noundef, i32 noundef) #1

; Function Attrs: mustprogress uwtable
define void @_ZN7Imf_3_49InputPart10readPixelsEi(ptr noundef nonnull align 8 dereferenceable(8) %0, i32 noundef %1) #4 align 2 {
  %3 = alloca ptr, align 8
  %4 = alloca i32, align 4
  store ptr %0, ptr %3, align 8, !tbaa !3
  store i32 %1, ptr %4, align 4, !tbaa !10
  %5 = load ptr, ptr %3, align 8
  %6 = getelementptr inbounds nuw %"class.Imf_3_4::InputPart", ptr %5, i32 0, i32 0
  %7 = load ptr, ptr %6, align 8, !tbaa !12
  %8 = load i32, ptr %4, align 4, !tbaa !10
  call void @_ZN7Imf_3_49InputFile10readPixelsEi(ptr noundef nonnull align 8 dereferenceable(32) %7, i32 noundef %8)
  ret void
}

declare void @_ZN7Imf_3_49InputFile10readPixelsEi(ptr noundef nonnull align 8 dereferenceable(32), i32 noundef) #1

; Function Attrs: mustprogress uwtable
define void @_ZN7Imf_3_49InputPart10readPixelsERKNS_11FrameBufferEii(ptr noundef nonnull align 8 dereferenceable(8) %0, ptr noundef nonnull align 1 %1, i32 noundef %2, i32 noundef %3) #4 align 2 {
  %5 = alloca ptr, align 8
  %6 = alloca ptr, align 8
  %7 = alloca i32, align 4
  %8 = alloca i32, align 4
  store ptr %0, ptr %5, align 8, !tbaa !3
  store ptr %1, ptr %6, align 8, !tbaa !15
  store i32 %2, ptr %7, align 4, !tbaa !10
  store i32 %3, ptr %8, align 4, !tbaa !10
  %9 = load ptr, ptr %5, align 8
  %10 = getelementptr inbounds nuw %"class.Imf_3_4::InputPart", ptr %9, i32 0, i32 0
  %11 = load ptr, ptr %10, align 8, !tbaa !12
  %12 = load ptr, ptr %6, align 8, !tbaa !15
  %13 = load i32, ptr %7, align 4, !tbaa !10
  %14 = load i32, ptr %8, align 4, !tbaa !10
  call void @_ZN7Imf_3_49InputFile10readPixelsERKNS_11FrameBufferEii(ptr noundef nonnull align 8 dereferenceable(32) %11, ptr noundef nonnull align 1 %12, i32 noundef %13, i32 noundef %14)
  ret void
}

declare void @_ZN7Imf_3_49InputFile10readPixelsERKNS_11FrameBufferEii(ptr noundef nonnull align 8 dereferenceable(32), ptr noundef nonnull align 1, i32 noundef, i32 noundef) #1

; Function Attrs: mustprogress uwtable
define void @_ZN7Imf_3_49InputPart12rawPixelDataEiRPKcRi(ptr noundef nonnull align 8 dereferenceable(8) %0, i32 noundef %1, ptr noundef nonnull align 8 dereferenceable(8) %2, ptr noundef nonnull align 4 dereferenceable(4) %3) #4 align 2 {
  %5 = alloca ptr, align 8
  %6 = alloca i32, align 4
  %7 = alloca ptr, align 8
  %8 = alloca ptr, align 8
  store ptr %0, ptr %5, align 8, !tbaa !3
  store i32 %1, ptr %6, align 4, !tbaa !10
  store ptr %2, ptr %7, align 8, !tbaa !17
  store ptr %3, ptr %8, align 8, !tbaa !20
  %9 = load ptr, ptr %5, align 8
  %10 = getelementptr inbounds nuw %"class.Imf_3_4::InputPart", ptr %9, i32 0, i32 0
  %11 = load ptr, ptr %10, align 8, !tbaa !12
  %12 = load i32, ptr %6, align 4, !tbaa !10
  %13 = load ptr, ptr %7, align 8, !tbaa !17
  %14 = load ptr, ptr %8, align 8, !tbaa !20
  call void @_ZN7Imf_3_49InputFile12rawPixelDataEiRPKcRi(ptr noundef nonnull align 8 dereferenceable(32) %11, i32 noundef %12, ptr noundef nonnull align 8 dereferenceable(8) %13, ptr noundef nonnull align 4 dereferenceable(4) %14)
  ret void
}

declare void @_ZN7Imf_3_49InputFile12rawPixelDataEiRPKcRi(ptr noundef nonnull align 8 dereferenceable(32), i32 noundef, ptr noundef nonnull align 8 dereferenceable(8), ptr noundef nonnull align 4 dereferenceable(4)) #1

; Function Attrs: mustprogress uwtable
define void @_ZNK7Imf_3_49InputPart20rawPixelDataToBufferEiPcRi(ptr noundef nonnull align 8 dereferenceable(8) %0, i32 noundef %1, ptr noundef %2, ptr noundef nonnull align 4 dereferenceable(4) %3) #4 align 2 {
  %5 = alloca ptr, align 8
  %6 = alloca i32, align 4
  %7 = alloca ptr, align 8
  %8 = alloca ptr, align 8
  store ptr %0, ptr %5, align 8, !tbaa !3
  store i32 %1, ptr %6, align 4, !tbaa !10
  store ptr %2, ptr %7, align 8, !tbaa !22
  store ptr %3, ptr %8, align 8, !tbaa !20
  %9 = load ptr, ptr %5, align 8
  %10 = getelementptr inbounds nuw %"class.Imf_3_4::InputPart", ptr %9, i32 0, i32 0
  %11 = load ptr, ptr %10, align 8, !tbaa !12
  %12 = load i32, ptr %6, align 4, !tbaa !10
  %13 = load ptr, ptr %7, align 8, !tbaa !22
  %14 = load ptr, ptr %8, align 8, !tbaa !20
  call void @_ZNK7Imf_3_49InputFile20rawPixelDataToBufferEiPcRi(ptr noundef nonnull align 8 dereferenceable(32) %11, i32 noundef %12, ptr noundef %13, ptr noundef nonnull align 4 dereferenceable(4) %14)
  ret void
}

declare void @_ZNK7Imf_3_49InputFile20rawPixelDataToBufferEiPcRi(ptr noundef nonnull align 8 dereferenceable(32), i32 noundef, ptr noundef, ptr noundef nonnull align 4 dereferenceable(4)) #1

; Function Attrs: mustprogress uwtable
define void @_ZN7Imf_3_49InputPart11rawTileDataERiS1_S1_S1_RPKcS1_(ptr noundef nonnull align 8 dereferenceable(8) %0, ptr noundef nonnull align 4 dereferenceable(4) %1, ptr noundef nonnull align 4 dereferenceable(4) %2, ptr noundef nonnull align 4 dereferenceable(4) %3, ptr noundef nonnull align 4 dereferenceable(4) %4, ptr noundef nonnull align 8 dereferenceable(8) %5, ptr noundef nonnull align 4 dereferenceable(4) %6) #4 align 2 {
  %8 = alloca ptr, align 8
  %9 = alloca ptr, align 8
  %10 = alloca ptr, align 8
  %11 = alloca ptr, align 8
  %12 = alloca ptr, align 8
  %13 = alloca ptr, align 8
  %14 = alloca ptr, align 8
  store ptr %0, ptr %8, align 8, !tbaa !3
  store ptr %1, ptr %9, align 8, !tbaa !20
  store ptr %2, ptr %10, align 8, !tbaa !20
  store ptr %3, ptr %11, align 8, !tbaa !20
  store ptr %4, ptr %12, align 8, !tbaa !20
  store ptr %5, ptr %13, align 8, !tbaa !17
  store ptr %6, ptr %14, align 8, !tbaa !20
  %15 = load ptr, ptr %8, align 8
  %16 = getelementptr inbounds nuw %"class.Imf_3_4::InputPart", ptr %15, i32 0, i32 0
  %17 = load ptr, ptr %16, align 8, !tbaa !12
  %18 = load ptr, ptr %9, align 8, !tbaa !20
  %19 = load ptr, ptr %10, align 8, !tbaa !20
  %20 = load ptr, ptr %11, align 8, !tbaa !20
  %21 = load ptr, ptr %12, align 8, !tbaa !20
  %22 = load ptr, ptr %13, align 8, !tbaa !17
  %23 = load ptr, ptr %14, align 8, !tbaa !20
  call void @_ZN7Imf_3_49InputFile11rawTileDataERiS1_S1_S1_RPKcS1_(ptr noundef nonnull align 8 dereferenceable(32) %17, ptr noundef nonnull align 4 dereferenceable(4) %18, ptr noundef nonnull align 4 dereferenceable(4) %19, ptr noundef nonnull align 4 dereferenceable(4) %20, ptr noundef nonnull align 4 dereferenceable(4) %21, ptr noundef nonnull align 8 dereferenceable(8) %22, ptr noundef nonnull align 4 dereferenceable(4) %23)
  ret void
}

declare void @_ZN7Imf_3_49InputFile11rawTileDataERiS1_S1_S1_RPKcS1_(ptr noundef nonnull align 8 dereferenceable(32), ptr noundef nonnull align 4 dereferenceable(4), ptr noundef nonnull align 4 dereferenceable(4), ptr noundef nonnull align 4 dereferenceable(4), ptr noundef nonnull align 4 dereferenceable(4), ptr noundef nonnull align 8 dereferenceable(8), ptr noundef nonnull align 4 dereferenceable(4)) #1

; Function Attrs: uwtable
define internal void @_GLOBAL__sub_I_ImfInputPart.cpp() #0 section ".text.startup" {
  call void @__cxx_global_var_init()
  ret void
}


!llvm.module.flags = !{!0, !1, !2}

!0 = !{i32 1, !"wchar_size", i32 4}
!1 = !{i32 8, !"PIC Level", i32 2}
!2 = !{i32 7, !"uwtable", i32 2}
!3 = !{!4, !4, i64 0}
!4 = !{!"p1 _ZTSN7Imf_3_49InputPartE", !5, i64 0}
!5 = !{!"any pointer", !6, i64 0}
!6 = !{!"omnipotent char", !7, i64 0}
!7 = !{!"Simple C++ TBAA"}
!8 = !{!9, !9, i64 0}
!9 = !{!"p1 _ZTSN7Imf_3_418MultiPartInputFileE", !5, i64 0}
!10 = !{!11, !11, i64 0}
!11 = !{!"int", !6, i64 0}
!12 = !{!13, !14, i64 0}
!13 = !{!"_ZTSN7Imf_3_49InputPartE", !14, i64 0}
!14 = !{!"p1 _ZTSN7Imf_3_49InputFileE", !5, i64 0}
!15 = !{!16, !16, i64 0}
!16 = !{!"p1 _ZTSN7Imf_3_411FrameBufferE", !5, i64 0}
!17 = !{!18, !18, i64 0}
!18 = !{!"p2 omnipotent char", !19, i64 0}
!19 = !{!"any p2 pointer", !5, i64 0}
!20 = !{!21, !21, i64 0}
!21 = !{!"p1 int", !5, i64 0}
!22 = !{!23, !23, i64 0}
!23 = !{!"p1 omnipotent char", !5, i64 0}
