; ModuleID = 'bench/openexr/original/ImfInputPart.ll'
source_filename = "bench/openexr/original/ImfInputPart.ll"
target datalayout = "e-m:e-p270:32:32-p271:32:32-p272:64:64-i64:64-i128:128-f80:128-n8:16:32:64-S128"
target triple = "x86_64-pc-linux-gnu"

%"class.std::ios_base::Init" = type { i8 }

@_ZStL8__ioinit = internal global %"class.std::ios_base::Init" zeroinitializer, align 1
@__dso_handle = external hidden global i8
@llvm.global_ctors = appending global [1 x { i32, ptr, ptr }] [{ i32, ptr, ptr } { i32 65535, ptr @_GLOBAL__sub_I_ImfInputPart.cpp, ptr null }]

@_ZN7Imf_3_49InputPartC1ERNS_18MultiPartInputFileEi = unnamed_addr alias void (ptr, ptr, i32), ptr @_ZN7Imf_3_49InputPartC2ERNS_18MultiPartInputFileEi

declare void @_ZNSt8ios_base4InitC1Ev(ptr noundef nonnull align 1 dereferenceable(1)) unnamed_addr #0

; Function Attrs: nounwind
declare void @_ZNSt8ios_base4InitD1Ev(ptr noundef nonnull align 1 dereferenceable(1)) unnamed_addr #1

; Function Attrs: nofree nounwind
declare i32 @__cxa_atexit(ptr, ptr, ptr) local_unnamed_addr #2

; Function Attrs: mustprogress uwtable
define void @_ZN7Imf_3_49InputPartC2ERNS_18MultiPartInputFileEi(ptr noundef nonnull writeonly align 8 captures(none) dereferenceable(8) initializes((0, 8)) %0, ptr noundef nonnull align 8 dereferenceable(32) %1, i32 noundef %2) unnamed_addr #3 align 2 {
  %4 = tail call noundef ptr @_ZN7Imf_3_418MultiPartInputFile12getInputPartINS_9InputFileEEEPT_i(ptr noundef nonnull align 8 dereferenceable(32) %1, i32 noundef %2)
  store ptr %4, ptr %0, align 8, !tbaa !3
  ret void
}

declare hidden noundef ptr @_ZN7Imf_3_418MultiPartInputFile12getInputPartINS_9InputFileEEEPT_i(ptr noundef nonnull align 8 dereferenceable(32), i32 noundef) local_unnamed_addr #0

; Function Attrs: mustprogress uwtable
define noundef ptr @_ZNK7Imf_3_49InputPart8fileNameEv(ptr noundef nonnull readonly align 8 captures(none) dereferenceable(8) %0) local_unnamed_addr #3 align 2 {
  %2 = load ptr, ptr %0, align 8, !tbaa !3
  %3 = tail call noundef ptr @_ZNK7Imf_3_49InputFile8fileNameEv(ptr noundef nonnull align 8 dereferenceable(32) %2)
  ret ptr %3
}

declare noundef ptr @_ZNK7Imf_3_49InputFile8fileNameEv(ptr noundef nonnull align 8 dereferenceable(32)) local_unnamed_addr #0

; Function Attrs: mustprogress uwtable
define noundef nonnull align 8 dereferenceable(49) ptr @_ZNK7Imf_3_49InputPart6headerEv(ptr noundef nonnull readonly align 8 captures(none) dereferenceable(8) %0) local_unnamed_addr #3 align 2 {
  %2 = load ptr, ptr %0, align 8, !tbaa !3
  %3 = tail call noundef nonnull align 8 dereferenceable(49) ptr @_ZNK7Imf_3_49InputFile6headerEv(ptr noundef nonnull align 8 dereferenceable(32) %2)
  ret ptr %3
}

declare noundef nonnull align 8 dereferenceable(49) ptr @_ZNK7Imf_3_49InputFile6headerEv(ptr noundef nonnull align 8 dereferenceable(32)) local_unnamed_addr #0

; Function Attrs: mustprogress uwtable
define noundef i32 @_ZNK7Imf_3_49InputPart7versionEv(ptr noundef nonnull readonly align 8 captures(none) dereferenceable(8) %0) local_unnamed_addr #3 align 2 {
  %2 = load ptr, ptr %0, align 8, !tbaa !3
  %3 = tail call noundef i32 @_ZNK7Imf_3_49InputFile7versionEv(ptr noundef nonnull align 8 dereferenceable(32) %2)
  ret i32 %3
}

declare noundef i32 @_ZNK7Imf_3_49InputFile7versionEv(ptr noundef nonnull align 8 dereferenceable(32)) local_unnamed_addr #0

; Function Attrs: mustprogress uwtable
define void @_ZN7Imf_3_49InputPart14setFrameBufferERKNS_11FrameBufferE(ptr noundef nonnull readonly align 8 captures(none) dereferenceable(8) %0, ptr noundef nonnull align 1 %1) local_unnamed_addr #3 align 2 {
  %3 = load ptr, ptr %0, align 8, !tbaa !3
  tail call void @_ZN7Imf_3_49InputFile14setFrameBufferERKNS_11FrameBufferE(ptr noundef nonnull align 8 dereferenceable(32) %3, ptr noundef nonnull align 1 %1)
  ret void
}

declare void @_ZN7Imf_3_49InputFile14setFrameBufferERKNS_11FrameBufferE(ptr noundef nonnull align 8 dereferenceable(32), ptr noundef nonnull align 1) local_unnamed_addr #0

; Function Attrs: mustprogress uwtable
define noundef nonnull align 1 ptr @_ZNK7Imf_3_49InputPart11frameBufferEv(ptr noundef nonnull readonly align 8 captures(none) dereferenceable(8) %0) local_unnamed_addr #3 align 2 {
  %2 = load ptr, ptr %0, align 8, !tbaa !3
  %3 = tail call noundef nonnull align 1 ptr @_ZNK7Imf_3_49InputFile11frameBufferEv(ptr noundef nonnull align 8 dereferenceable(32) %2)
  ret ptr %3
}

declare noundef nonnull align 1 ptr @_ZNK7Imf_3_49InputFile11frameBufferEv(ptr noundef nonnull align 8 dereferenceable(32)) local_unnamed_addr #0

; Function Attrs: mustprogress uwtable
define noundef zeroext i1 @_ZNK7Imf_3_49InputPart10isCompleteEv(ptr noundef nonnull readonly align 8 captures(none) dereferenceable(8) %0) local_unnamed_addr #3 align 2 {
  %2 = load ptr, ptr %0, align 8, !tbaa !3
  %3 = tail call noundef zeroext i1 @_ZNK7Imf_3_49InputFile10isCompleteEv(ptr noundef nonnull align 8 dereferenceable(32) %2)
  ret i1 %3
}

declare noundef zeroext i1 @_ZNK7Imf_3_49InputFile10isCompleteEv(ptr noundef nonnull align 8 dereferenceable(32)) local_unnamed_addr #0

; Function Attrs: mustprogress uwtable
define noundef zeroext i1 @_ZNK7Imf_3_49InputPart21isOptimizationEnabledEv(ptr noundef nonnull readonly align 8 captures(none) dereferenceable(8) %0) local_unnamed_addr #3 align 2 {
  %2 = load ptr, ptr %0, align 8, !tbaa !3
  %3 = tail call noundef zeroext i1 @_ZNK7Imf_3_49InputFile21isOptimizationEnabledEv(ptr noundef nonnull align 8 dereferenceable(32) %2)
  ret i1 %3
}

declare noundef zeroext i1 @_ZNK7Imf_3_49InputFile21isOptimizationEnabledEv(ptr noundef nonnull align 8 dereferenceable(32)) local_unnamed_addr #0

; Function Attrs: mustprogress uwtable
define void @_ZN7Imf_3_49InputPart10readPixelsEii(ptr noundef nonnull readonly align 8 captures(none) dereferenceable(8) %0, i32 noundef %1, i32 noundef %2) local_unnamed_addr #3 align 2 {
  %4 = load ptr, ptr %0, align 8, !tbaa !3
  tail call void @_ZN7Imf_3_49InputFile10readPixelsEii(ptr noundef nonnull align 8 dereferenceable(32) %4, i32 noundef %1, i32 noundef %2)
  ret void
}

declare void @_ZN7Imf_3_49InputFile10readPixelsEii(ptr noundef nonnull align 8 dereferenceable(32), i32 noundef, i32 noundef) local_unnamed_addr #0

; Function Attrs: mustprogress uwtable
define void @_ZN7Imf_3_49InputPart10readPixelsEi(ptr noundef nonnull readonly align 8 captures(none) dereferenceable(8) %0, i32 noundef %1) local_unnamed_addr #3 align 2 {
  %3 = load ptr, ptr %0, align 8, !tbaa !3
  tail call void @_ZN7Imf_3_49InputFile10readPixelsEi(ptr noundef nonnull align 8 dereferenceable(32) %3, i32 noundef %1)
  ret void
}

declare void @_ZN7Imf_3_49InputFile10readPixelsEi(ptr noundef nonnull align 8 dereferenceable(32), i32 noundef) local_unnamed_addr #0

; Function Attrs: mustprogress uwtable
define void @_ZN7Imf_3_49InputPart10readPixelsERKNS_11FrameBufferEii(ptr noundef nonnull readonly align 8 captures(none) dereferenceable(8) %0, ptr noundef nonnull align 1 %1, i32 noundef %2, i32 noundef %3) local_unnamed_addr #3 align 2 {
  %5 = load ptr, ptr %0, align 8, !tbaa !3
  tail call void @_ZN7Imf_3_49InputFile10readPixelsERKNS_11FrameBufferEii(ptr noundef nonnull align 8 dereferenceable(32) %5, ptr noundef nonnull align 1 %1, i32 noundef %2, i32 noundef %3)
  ret void
}

declare void @_ZN7Imf_3_49InputFile10readPixelsERKNS_11FrameBufferEii(ptr noundef nonnull align 8 dereferenceable(32), ptr noundef nonnull align 1, i32 noundef, i32 noundef) local_unnamed_addr #0

; Function Attrs: mustprogress uwtable
define void @_ZN7Imf_3_49InputPart12rawPixelDataEiRPKcRi(ptr noundef nonnull readonly align 8 captures(none) dereferenceable(8) %0, i32 noundef %1, ptr noundef nonnull align 8 dereferenceable(8) %2, ptr noundef nonnull align 4 dereferenceable(4) %3) local_unnamed_addr #3 align 2 {
  %5 = load ptr, ptr %0, align 8, !tbaa !3
  tail call void @_ZN7Imf_3_49InputFile12rawPixelDataEiRPKcRi(ptr noundef nonnull align 8 dereferenceable(32) %5, i32 noundef %1, ptr noundef nonnull align 8 dereferenceable(8) %2, ptr noundef nonnull align 4 dereferenceable(4) %3)
  ret void
}

declare void @_ZN7Imf_3_49InputFile12rawPixelDataEiRPKcRi(ptr noundef nonnull align 8 dereferenceable(32), i32 noundef, ptr noundef nonnull align 8 dereferenceable(8), ptr noundef nonnull align 4 dereferenceable(4)) local_unnamed_addr #0

; Function Attrs: mustprogress uwtable
define void @_ZNK7Imf_3_49InputPart20rawPixelDataToBufferEiPcRi(ptr noundef nonnull readonly align 8 captures(none) dereferenceable(8) %0, i32 noundef %1, ptr noundef %2, ptr noundef nonnull align 4 dereferenceable(4) %3) local_unnamed_addr #3 align 2 {
  %5 = load ptr, ptr %0, align 8, !tbaa !3
  tail call void @_ZNK7Imf_3_49InputFile20rawPixelDataToBufferEiPcRi(ptr noundef nonnull align 8 dereferenceable(32) %5, i32 noundef %1, ptr noundef %2, ptr noundef nonnull align 4 dereferenceable(4) %3)
  ret void
}

declare void @_ZNK7Imf_3_49InputFile20rawPixelDataToBufferEiPcRi(ptr noundef nonnull align 8 dereferenceable(32), i32 noundef, ptr noundef, ptr noundef nonnull align 4 dereferenceable(4)) local_unnamed_addr #0

; Function Attrs: mustprogress uwtable
define void @_ZN7Imf_3_49InputPart11rawTileDataERiS1_S1_S1_RPKcS1_(ptr noundef nonnull readonly align 8 captures(none) dereferenceable(8) %0, ptr noundef nonnull align 4 dereferenceable(4) %1, ptr noundef nonnull align 4 dereferenceable(4) %2, ptr noundef nonnull align 4 dereferenceable(4) %3, ptr noundef nonnull align 4 dereferenceable(4) %4, ptr noundef nonnull align 8 dereferenceable(8) %5, ptr noundef nonnull align 4 dereferenceable(4) %6) local_unnamed_addr #3 align 2 {
  %8 = load ptr, ptr %0, align 8, !tbaa !3
  tail call void @_ZN7Imf_3_49InputFile11rawTileDataERiS1_S1_S1_RPKcS1_(ptr noundef nonnull align 8 dereferenceable(32) %8, ptr noundef nonnull align 4 dereferenceable(4) %1, ptr noundef nonnull align 4 dereferenceable(4) %2, ptr noundef nonnull align 4 dereferenceable(4) %3, ptr noundef nonnull align 4 dereferenceable(4) %4, ptr noundef nonnull align 8 dereferenceable(8) %5, ptr noundef nonnull align 4 dereferenceable(4) %6)
  ret void
}

declare void @_ZN7Imf_3_49InputFile11rawTileDataERiS1_S1_S1_RPKcS1_(ptr noundef nonnull align 8 dereferenceable(32), ptr noundef nonnull align 4 dereferenceable(4), ptr noundef nonnull align 4 dereferenceable(4), ptr noundef nonnull align 4 dereferenceable(4), ptr noundef nonnull align 4 dereferenceable(4), ptr noundef nonnull align 8 dereferenceable(8), ptr noundef nonnull align 4 dereferenceable(4)) local_unnamed_addr #0

; Function Attrs: uwtable
define internal void @_GLOBAL__sub_I_ImfInputPart.cpp() #4 section ".text.startup" {
  tail call void @_ZNSt8ios_base4InitC1Ev(ptr noundef nonnull align 1 dereferenceable(1) @_ZStL8__ioinit)
  %1 = tail call i32 @__cxa_atexit(ptr nonnull @_ZNSt8ios_base4InitD1Ev, ptr nonnull @_ZStL8__ioinit, ptr nonnull @__dso_handle) #5
  ret void
}


!llvm.module.flags = !{!0, !1, !2}

!0 = !{i32 1, !"wchar_size", i32 4}
!1 = !{i32 8, !"PIC Level", i32 2}
!2 = !{i32 7, !"uwtable", i32 2}
!3 = !{!4, !5, i64 0}
!4 = !{!"_ZTSN7Imf_3_49InputPartE", !5, i64 0}
!5 = !{!"p1 _ZTSN7Imf_3_49InputFileE", !6, i64 0}
!6 = !{!"any pointer", !7, i64 0}
!7 = !{!"omnipotent char", !8, i64 0}
!8 = !{!"Simple C++ TBAA"}
